(dp0
S'08G-QSS2:Curr1'
p1
F3.09
sS'02G-QSS3:Curr1'
p2
F3.36
sS'12G-QSS3:Curr1'
p3
F3.26
sS'noise'
p4
F0.00136
sS'01G-QSS4:Curr1'
p5
F5.71
sS'05G-QSS3:Curr1'
p6
F3.47
sS'14G-QSS2:Curr1'
p7
F3.44
sS'17G-QSS2:Curr1'
p8
F3.13
sS'11G-QSS3:Curr1'
p9
F2.31
sS'09G-QSS1:Curr1'
p10
F4.5
sS'07G-QSS2:Curr1'
p11
F3.3
sS'offset'
p12
F0.45
sS'amp'
p13
F0.11628
sS'16G-QSS2:Curr1'
p14
F3.08
sS'18G-QSS1:Curr1'
p15
F5.57
sS'10G-QSS4:Curr1'
p16
F4.78
s.